; Function Attrs: nounwind uwtable
define hidden void @zim_SQLite3_exec(ptr noundef readonly captures(none) %0, ptr noundef writeonly captures(none) %1) #0 {
  %3 = alloca ptr, align 8
  %4 = alloca ptr, align 8
  %5 = getelementptr inbounds nuw i8, ptr %0, i64 32
  call void @llvm.lifetime.start.p0(i64 8, ptr nonnull %3) #17
  call void @llvm.lifetime.start.p0(i64 8, ptr nonnull %4) #17
  store ptr null, ptr %4, align 8, !tbaa !58
  %6 = load ptr, ptr %5, align 8, !tbaa !8
  %7 = getelementptr inbounds i8, ptr %6, i64 -128
  %8 = getelementptr inbounds nuw i8, ptr %0, i64 44
  %9 = load i32, ptr %8, align 4, !tbaa !8
  %10 = call i32 (i32, ptr, ...) @zend_parse_parameters(i32 noundef %9, ptr noundef nonnull @.str.7, ptr noundef nonnull %3) #17
  %11 = icmp eq i32 %10, -1
  br i1 %11, label %12, label %15

12:                                               ; preds = %2
  %13 = load ptr, ptr getelementptr inbounds nuw (i8, ptr @executor_globals, i64 960), align 8, !tbaa !9
  %14 = icmp ne ptr %13, null
  call void @llvm.assume(i1 %14)
  br label %33

15:                                               ; preds = %2
  %16 = load i8, ptr %7, align 8, !tbaa !44, !range !55, !noundef !56
  %17 = trunc nuw i8 %16 to i1
  br i1 %17, label %21, label %18

18:                                               ; preds = %15
  call void (ptr, ptr, ...) @zend_throw_error(ptr noundef null, ptr noundef nonnull @.str.8) #17
  %19 = load ptr, ptr getelementptr inbounds nuw (i8, ptr @executor_globals, i64 960), align 8, !tbaa !9
  %20 = icmp ne ptr %19, null
  call void @llvm.assume(i1 %20)
  br label %33

21:                                               ; preds = %15
  %22 = getelementptr inbounds i8, ptr %6, i64 -120
  %23 = load ptr, ptr %22, align 8, !tbaa !59
  %24 = load ptr, ptr %3, align 8, !tbaa !79
  %25 = getelementptr inbounds nuw i8, ptr %24, i64 24
  %26 = call i32 @sqlite3_exec(ptr noundef %23, ptr noundef nonnull %25, ptr noundef null, ptr noundef null, ptr noundef nonnull %4) #17
  %.not11 = icmp eq i32 %26, 0
  br i1 %.not11, label %31, label %27

27:                                               ; preds = %21
  %28 = load ptr, ptr %4, align 8, !tbaa !58
  call void (ptr, i32, ptr, ...) @php_sqlite3_error(ptr noundef nonnull %7, i32 noundef %26, ptr noundef nonnull @.str.9, ptr noundef %28)
  %29 = load ptr, ptr %4, align 8, !tbaa !58
  call void @sqlite3_free(ptr noundef %29) #17
  %30 = getelementptr inbounds nuw i8, ptr %1, i64 8
  store i32 2, ptr %30, align 8, !tbaa !8
  br label %33

31:                                               ; preds = %21
  %32 = getelementptr inbounds nuw i8, ptr %1, i64 8
  store i32 3, ptr %32, align 8, !tbaa !8
  br label %33

33:                                               ; preds = %31, %27, %18, %12
  call void @llvm.lifetime.end.p0(i64 8, ptr nonnull %4) #17
  call void @llvm.lifetime.end.p0(i64 8, ptr nonnull %3) #17
  ret void
}